; Function Attrs: nofree nosync nounwind memory(readwrite, inaccessiblemem: none) uwtable
define noundef ptr @php_replace_controlchars_ex(ptr noundef returned %0, i64 noundef %1) local_unnamed_addr #2 {
  %3 = getelementptr inbounds i8, ptr %0, i64 %1
  %.not = icmp ne ptr %0, null
  %4 = icmp sgt i64 %1, 0
  %or.cond = and i1 %.not, %4
  br i1 %or.cond, label %.lr.ph, label %.loopexit

.lr.ph:                                           ; preds = %2
  %5 = tail call ptr @__ctype_b_loc() #17
  br label %6

6:                                                ; preds = %.lr.ph, %14
  %.01013 = phi ptr [ %0, %.lr.ph ], [ %15, %14 ]
  %7 = load ptr, ptr %5, align 8
  %8 = load i8, ptr %.01013, align 1
  %9 = zext i8 %8 to i64
  %10 = getelementptr inbounds i16, ptr %7, i64 %9
  %11 = load i16, ptr %10, align 2
  %12 = and i16 %11, 2
  %.not12 = icmp eq i16 %12, 0
  br i1 %.not12, label %14, label %13

13:                                               ; preds = %6
  store i8 95, ptr %.01013, align 1
  br label %14

14:                                               ; preds = %13, %6
  %15 = getelementptr inbounds i8, ptr %.01013, i64 1
  %16 = icmp ult ptr %15, %3
  br i1 %16, label %6, label %.loopexit

.loopexit:                                        ; preds = %14, %2
  ret ptr %0
}